target datalayout = "e-m:e-p270:32:32-p271:32:32-p272:64:64-i64:64-i128:128-f80:128-n8:16:32:64-S128"
target triple = "x86_64-pc-linux-gnu"

%struct._packet_info = type { ptr, ptr, i32, i32, %struct.nstime_t, %struct.nstime_t, %struct.nstime_t, i32, ptr, ptr, ptr, ptr, %struct._address, %struct._address, %struct._address, %struct._address, %struct._address, %struct._address, i32, ptr, i32, %struct.anon, i32, i32, i32, i32, ptr, i32, ptr, ptr, i16, i16, i32, i32, i16, i32, i32, ptr, ptr, ptr, i8, i8, i16, i16, i16, i32, i16, i16, ptr, ptr, ptr, ptr, ptr, i32 }
%struct.nstime_t = type { i64, i32 }
%struct._address = type { i32, i32, ptr, ptr }
%struct.anon = type { i8, [3 x i8] }

@proto_wifi_dpp = internal global i32 0, align 4
@ett_wifi_dpp_pa = internal global i32 0, align 4
@.str = private unnamed_addr constant [15 x i8] c" Configuration\00", align 1
@ett_wifi_dpp_attributes = internal global i32 0, align 4
@.str.1 = private unnamed_addr constant [15 x i8] c"DPP Attributes\00", align 1
@hf_wifi_dpp_tcp_pdu_length = internal global i32 0, align 4
@hf_wifi_dpp_tcp_pdu_action_field = internal global i32 0, align 4
@hf_wifi_dpp_tcp_oui = internal global i32 0, align 4
@hf_wifi_dpp_tcp_oui_type = internal global i32 0, align 4
@hf_wifi_dpp_tcp_dialog_token = internal global i32 0, align 4
@hf_wifi_dpp_tcp_adv_proto_elt = internal global i32 0, align 4
@hf_wifi_dpp_tcp_vendor_specific = internal global i32 0, align 4
@hf_wifi_dpp_tcp_vendor_spec_len = internal global i32 0, align 4
@hf_wifi_dpp_tcp_config = internal global i32 0, align 4
@hf_wifi_dpp_tcp_query_req_len = internal global i32 0, align 4
@hf_wifi_dpp_gas_query_resp_frag_id = internal global i32 0, align 4
@hf_wifi_dpp_tcp_status_code = internal global i32 0, align 4
@hf_wifi_dpp_tcp_comeback_delay = internal global i32 0, align 4
@hf_wifi_dpp_tcp_query_resp_len = internal global i32 0, align 4
@.str.88 = private unnamed_addr constant [4 x i8] c"dpp\00", align 1
@.str.164 = private unnamed_addr constant [30 x i8] c", DPP - Configuration Request\00", align 1
@.str.165 = private unnamed_addr constant [31 x i8] c", DPP - Configuration Response\00", align 1

; Function Attrs: nounwind uwtable
define hidden i32 @dissect_wifi_dpp_config_proto(ptr noundef %0, ptr noundef %1, ptr noundef %2, i32 noundef %3) #0 {
  %5 = alloca ptr, align 8
  %6 = alloca ptr, align 8
  %7 = alloca ptr, align 8
  %8 = alloca i32, align 4
  %9 = alloca ptr, align 8
  %10 = alloca ptr, align 8
  %11 = alloca ptr, align 8
  %12 = alloca i32, align 4
  store ptr %0, ptr %5, align 8
  store ptr %1, ptr %6, align 8
  store ptr %2, ptr %7, align 8
  store i32 %3, ptr %8, align 4
  %13 = load ptr, ptr %7, align 8
  %14 = load i32, ptr %8, align 4
  %15 = call i32 @tvb_reported_length_remaining(ptr noundef %13, i32 noundef %14)
  store i32 %15, ptr %12, align 4
  %16 = load ptr, ptr %6, align 8
  %17 = load i32, ptr @proto_wifi_dpp, align 4
  %18 = load ptr, ptr %7, align 8
  %19 = load i32, ptr %8, align 4
  %20 = call ptr @proto_tree_add_item(ptr noundef %16, i32 noundef %17, ptr noundef %18, i32 noundef %19, i32 noundef -1, i32 noundef 0)
  store ptr %20, ptr %9, align 8
  %21 = load ptr, ptr %9, align 8
  %22 = load i32, ptr @ett_wifi_dpp_pa, align 4
  %23 = call ptr @proto_item_add_subtree(ptr noundef %21, i32 noundef %22)
  store ptr %23, ptr %10, align 8
  %24 = load ptr, ptr %9, align 8
  call void (ptr, ptr, ...) @proto_item_append_text(ptr noundef %24, ptr noundef @.str)
  %25 = load ptr, ptr %10, align 8
  %26 = load ptr, ptr %7, align 8
  %27 = load i32, ptr %8, align 4
  %28 = load i32, ptr %12, align 4
  %29 = load i32, ptr @ett_wifi_dpp_attributes, align 4
  %30 = call ptr (ptr, ptr, i32, i32, i32, ptr, ptr, ...) @proto_tree_add_subtree_format(ptr noundef %25, ptr noundef %26, i32 noundef %27, i32 noundef %28, i32 noundef %29, ptr noundef null, ptr noundef @.str.1)
  store ptr %30, ptr %11, align 8
  %31 = load ptr, ptr %5, align 8
  %32 = load ptr, ptr %11, align 8
  %33 = load ptr, ptr %7, align 8
  %34 = load i32, ptr %8, align 4
  %35 = call i32 @dissect_wifi_dpp_attributes(ptr noundef %31, ptr noundef %32, ptr noundef %33, i32 noundef %34)
  store i32 %35, ptr %8, align 4
  %36 = load i32, ptr %8, align 4
  ret i32 %36
}

; Function Attrs: nounwind uwtable
define internal i32 @dissect_wifi_dpp_tcp_pdu(ptr noundef %0, ptr noundef %1, ptr noundef %2, ptr noundef %3) #0 {
  %5 = alloca ptr, align 8
  %6 = alloca ptr, align 8
  %7 = alloca ptr, align 8
  %8 = alloca ptr, align 8
  %9 = alloca i32, align 4
  %10 = alloca i8, align 1
  %11 = alloca ptr, align 8
  %12 = alloca i16, align 2
  store ptr %0, ptr %5, align 8
  store ptr %1, ptr %6, align 8
  store ptr %2, ptr %7, align 8
  store ptr %3, ptr %8, align 8
  store i32 0, ptr %9, align 4
  %13 = load ptr, ptr %6, align 8
  %14 = getelementptr inbounds %struct._packet_info, ptr %13, i32 0, i32 1
  %15 = load ptr, ptr %14, align 8
  call void @col_set_str(ptr noundef %15, i32 noundef 34, ptr noundef @.str.88)
  %16 = load ptr, ptr %7, align 8
  %17 = load i32, ptr @hf_wifi_dpp_tcp_pdu_length, align 4
  %18 = load ptr, ptr %5, align 8
  %19 = load i32, ptr %9, align 4
  %20 = call ptr @proto_tree_add_item(ptr noundef %16, i32 noundef %17, ptr noundef %18, i32 noundef %19, i32 noundef 4, i32 noundef 0)
  %21 = load i32, ptr %9, align 4
  %22 = add i32 %21, 4
  store i32 %22, ptr %9, align 4
  %23 = load ptr, ptr %5, align 8
  %24 = load i32, ptr %9, align 4
  %25 = call zeroext i8 @tvb_get_guint8(ptr noundef %23, i32 noundef %24)
  store i8 %25, ptr %10, align 1
  %26 = load ptr, ptr %7, align 8
  %27 = load i32, ptr @hf_wifi_dpp_tcp_pdu_action_field, align 4
  %28 = load ptr, ptr %5, align 8
  %29 = load i32, ptr %9, align 4
  %30 = call ptr @proto_tree_add_item(ptr noundef %26, i32 noundef %27, ptr noundef %28, i32 noundef %29, i32 noundef 1, i32 noundef 0)
  %31 = load i32, ptr %9, align 4
  %32 = add i32 %31, 1
  store i32 %32, ptr %9, align 4
  %33 = load i8, ptr %10, align 1
  %34 = zext i8 %33 to i32
  %35 = icmp eq i32 %34, 9
  br i1 %35, label %36, label %60

36:                                               ; preds = %4
  %37 = load ptr, ptr %7, align 8
  %38 = load i32, ptr @hf_wifi_dpp_tcp_oui, align 4
  %39 = load ptr, ptr %5, align 8
  %40 = load i32, ptr %9, align 4
  %41 = call ptr @proto_tree_add_item(ptr noundef %37, i32 noundef %38, ptr noundef %39, i32 noundef %40, i32 noundef 3, i32 noundef 0)
  %42 = load i32, ptr %9, align 4
  %43 = add i32 %42, 3
  store i32 %43, ptr %9, align 4
  %44 = load ptr, ptr %7, align 8
  %45 = load i32, ptr @hf_wifi_dpp_tcp_oui_type, align 4
  %46 = load ptr, ptr %5, align 8
  %47 = load i32, ptr %9, align 4
  %48 = call ptr @proto_tree_add_item(ptr noundef %44, i32 noundef %45, ptr noundef %46, i32 noundef %47, i32 noundef 1, i32 noundef 0)
  %49 = load i32, ptr %9, align 4
  %50 = add i32 %49, 1
  store i32 %50, ptr %9, align 4
  %51 = load ptr, ptr %5, align 8
  %52 = load i32, ptr %9, align 4
  %53 = call ptr @tvb_new_subset_remaining(ptr noundef %51, i32 noundef %52)
  store ptr %53, ptr %11, align 8
  %54 = load ptr, ptr %11, align 8
  %55 = load ptr, ptr %6, align 8
  %56 = load ptr, ptr %7, align 8
  %57 = call i32 @dissect_wifi_dpp_public_action(ptr noundef %54, ptr noundef %55, ptr noundef %56, ptr noundef null)
  %58 = load i32, ptr %9, align 4
  %59 = add i32 %58, %57
  store i32 %59, ptr %9, align 4
  br label %241

60:                                               ; preds = %4
  %61 = load i8, ptr %10, align 1
  %62 = zext i8 %61 to i32
  %63 = icmp eq i32 %62, 10
  br i1 %63, label %64, label %131

64:                                               ; preds = %60
  %65 = load ptr, ptr %6, align 8
  %66 = getelementptr inbounds %struct._packet_info, ptr %65, i32 0, i32 1
  %67 = load ptr, ptr %66, align 8
  call void @col_append_str(ptr noundef %67, i32 noundef 25, ptr noundef @.str.164)
  %68 = load ptr, ptr %7, align 8
  %69 = load i32, ptr @hf_wifi_dpp_tcp_dialog_token, align 4
  %70 = load ptr, ptr %5, align 8
  %71 = load i32, ptr %9, align 4
  %72 = call ptr @proto_tree_add_item(ptr noundef %68, i32 noundef %69, ptr noundef %70, i32 noundef %71, i32 noundef 1, i32 noundef 0)
  %73 = load i32, ptr %9, align 4
  %74 = add i32 %73, 1
  store i32 %74, ptr %9, align 4
  %75 = load ptr, ptr %7, align 8
  %76 = load i32, ptr @hf_wifi_dpp_tcp_adv_proto_elt, align 4
  %77 = load ptr, ptr %5, align 8
  %78 = load i32, ptr %9, align 4
  %79 = call ptr @proto_tree_add_item(ptr noundef %75, i32 noundef %76, ptr noundef %77, i32 noundef %78, i32 noundef 3, i32 noundef 0)
  %80 = load i32, ptr %9, align 4
  %81 = add i32 %80, 3
  store i32 %81, ptr %9, align 4
  %82 = load ptr, ptr %7, align 8
  %83 = load i32, ptr @hf_wifi_dpp_tcp_vendor_specific, align 4
  %84 = load ptr, ptr %5, align 8
  %85 = load i32, ptr %9, align 4
  %86 = call ptr @proto_tree_add_item(ptr noundef %82, i32 noundef %83, ptr noundef %84, i32 noundef %85, i32 noundef 1, i32 noundef 0)
  %87 = load i32, ptr %9, align 4
  %88 = add i32 %87, 1
  store i32 %88, ptr %9, align 4
  %89 = load ptr, ptr %7, align 8
  %90 = load i32, ptr @hf_wifi_dpp_tcp_vendor_spec_len, align 4
  %91 = load ptr, ptr %5, align 8
  %92 = load i32, ptr %9, align 4
  %93 = call ptr @proto_tree_add_item(ptr noundef %89, i32 noundef %90, ptr noundef %91, i32 noundef %92, i32 noundef 1, i32 noundef 0)
  %94 = load i32, ptr %9, align 4
  %95 = add i32 %94, 1
  store i32 %95, ptr %9, align 4
  %96 = load ptr, ptr %7, align 8
  %97 = load i32, ptr @hf_wifi_dpp_tcp_oui, align 4
  %98 = load ptr, ptr %5, align 8
  %99 = load i32, ptr %9, align 4
  %100 = call ptr @proto_tree_add_item(ptr noundef %96, i32 noundef %97, ptr noundef %98, i32 noundef %99, i32 noundef 3, i32 noundef 0)
  %101 = load i32, ptr %9, align 4
  %102 = add i32 %101, 3
  store i32 %102, ptr %9, align 4
  %103 = load ptr, ptr %7, align 8
  %104 = load i32, ptr @hf_wifi_dpp_tcp_oui_type, align 4
  %105 = load ptr, ptr %5, align 8
  %106 = load i32, ptr %9, align 4
  %107 = call ptr @proto_tree_add_item(ptr noundef %103, i32 noundef %104, ptr noundef %105, i32 noundef %106, i32 noundef 1, i32 noundef 0)
  %108 = load i32, ptr %9, align 4
  %109 = add i32 %108, 1
  store i32 %109, ptr %9, align 4
  %110 = load ptr, ptr %7, align 8
  %111 = load i32, ptr @hf_wifi_dpp_tcp_config, align 4
  %112 = load ptr, ptr %5, align 8
  %113 = load i32, ptr %9, align 4
  %114 = call ptr @proto_tree_add_item(ptr noundef %110, i32 noundef %111, ptr noundef %112, i32 noundef %113, i32 noundef 1, i32 noundef 0)
  %115 = load i32, ptr %9, align 4
  %116 = add i32 %115, 1
  store i32 %116, ptr %9, align 4
  %117 = load ptr, ptr %7, align 8
  %118 = load i32, ptr @hf_wifi_dpp_tcp_query_req_len, align 4
  %119 = load ptr, ptr %5, align 8
  %120 = load i32, ptr %9, align 4
  %121 = call ptr @proto_tree_add_item(ptr noundef %117, i32 noundef %118, ptr noundef %119, i32 noundef %120, i32 noundef 2, i32 noundef -2147483648)
  %122 = load i32, ptr %9, align 4
  %123 = add i32 %122, 2
  store i32 %123, ptr %9, align 4
  %124 = load ptr, ptr %6, align 8
  %125 = load ptr, ptr %7, align 8
  %126 = load ptr, ptr %5, align 8
  %127 = load i32, ptr %9, align 4
  %128 = call i32 @dissect_wifi_dpp_config_proto(ptr noundef %124, ptr noundef %125, ptr noundef %126, i32 noundef %127)
  %129 = load i32, ptr %9, align 4
  %130 = add i32 %129, %128
  store i32 %130, ptr %9, align 4
  br label %240

131:                                              ; preds = %60
  %132 = load i8, ptr %10, align 1
  %133 = zext i8 %132 to i32
  %134 = icmp eq i32 %133, 11
  br i1 %134, label %139, label %135

135:                                              ; preds = %131
  %136 = load i8, ptr %10, align 1
  %137 = zext i8 %136 to i32
  %138 = icmp eq i32 %137, 13
  br i1 %138, label %139, label %239

139:                                              ; preds = %135, %131
  %140 = load ptr, ptr %6, align 8
  %141 = getelementptr inbounds %struct._packet_info, ptr %140, i32 0, i32 1
  %142 = load ptr, ptr %141, align 8
  call void @col_append_str(ptr noundef %142, i32 noundef 25, ptr noundef @.str.165)
  %143 = load ptr, ptr %7, align 8
  %144 = load i32, ptr @hf_wifi_dpp_tcp_dialog_token, align 4
  %145 = load ptr, ptr %5, align 8
  %146 = load i32, ptr %9, align 4
  %147 = call ptr @proto_tree_add_item(ptr noundef %143, i32 noundef %144, ptr noundef %145, i32 noundef %146, i32 noundef 1, i32 noundef 0)
  %148 = load i32, ptr %9, align 4
  %149 = add i32 %148, 1
  store i32 %149, ptr %9, align 4
  %150 = load ptr, ptr %7, align 8
  %151 = load i32, ptr @hf_wifi_dpp_tcp_status_code, align 4
  %152 = load ptr, ptr %5, align 8
  %153 = load i32, ptr %9, align 4
  %154 = call ptr @proto_tree_add_item(ptr noundef %150, i32 noundef %151, ptr noundef %152, i32 noundef %153, i32 noundef 2, i32 noundef -2147483648)
  %155 = load i32, ptr %9, align 4
  %156 = add i32 %155, 2
  store i32 %156, ptr %9, align 4
  %157 = load i8, ptr %10, align 1
  %158 = zext i8 %157 to i32
  %159 = icmp eq i32 %158, 13
  br i1 %159, label %160, label %168

160:                                              ; preds = %139
  %161 = load ptr, ptr %7, align 8
  %162 = load i32, ptr @hf_wifi_dpp_gas_query_resp_frag_id, align 4
  %163 = load ptr, ptr %5, align 8
  %164 = load i32, ptr %9, align 4
  %165 = call ptr @proto_tree_add_item(ptr noundef %161, i32 noundef %162, ptr noundef %163, i32 noundef %164, i32 noundef 1, i32 noundef 0)
  %166 = load i32, ptr %9, align 4
  %167 = add i32 %166, 1
  store i32 %167, ptr %9, align 4
  br label %168

168:                                              ; preds = %160, %139
  %169 = load ptr, ptr %7, align 8
  %170 = load i32, ptr @hf_wifi_dpp_tcp_comeback_delay, align 4
  %171 = load ptr, ptr %5, align 8
  %172 = load i32, ptr %9, align 4
  %173 = call ptr @proto_tree_add_item(ptr noundef %169, i32 noundef %170, ptr noundef %171, i32 noundef %172, i32 noundef 2, i32 noundef -2147483648)
  %174 = load i32, ptr %9, align 4
  %175 = add i32 %174, 2
  store i32 %175, ptr %9, align 4
  %176 = load ptr, ptr %7, align 8
  %177 = load i32, ptr @hf_wifi_dpp_tcp_adv_proto_elt, align 4
  %178 = load ptr, ptr %5, align 8
  %179 = load i32, ptr %9, align 4
  %180 = call ptr @proto_tree_add_item(ptr noundef %176, i32 noundef %177, ptr noundef %178, i32 noundef %179, i32 noundef 3, i32 noundef 0)
  %181 = load i32, ptr %9, align 4
  %182 = add i32 %181, 3
  store i32 %182, ptr %9, align 4
  %183 = load ptr, ptr %7, align 8
  %184 = load i32, ptr @hf_wifi_dpp_tcp_vendor_specific, align 4
  %185 = load ptr, ptr %5, align 8
  %186 = load i32, ptr %9, align 4
  %187 = call ptr @proto_tree_add_item(ptr noundef %183, i32 noundef %184, ptr noundef %185, i32 noundef %186, i32 noundef 1, i32 noundef 0)
  %188 = load i32, ptr %9, align 4
  %189 = add i32 %188, 1
  store i32 %189, ptr %9, align 4
  %190 = load ptr, ptr %7, align 8
  %191 = load i32, ptr @hf_wifi_dpp_tcp_vendor_spec_len, align 4
  %192 = load ptr, ptr %5, align 8
  %193 = load i32, ptr %9, align 4
  %194 = call ptr @proto_tree_add_item(ptr noundef %190, i32 noundef %191, ptr noundef %192, i32 noundef %193, i32 noundef 1, i32 noundef 0)
  %195 = load i32, ptr %9, align 4
  %196 = add i32 %195, 1
  store i32 %196, ptr %9, align 4
  %197 = load ptr, ptr %7, align 8
  %198 = load i32, ptr @hf_wifi_dpp_tcp_oui, align 4
  %199 = load ptr, ptr %5, align 8
  %200 = load i32, ptr %9, align 4
  %201 = call ptr @proto_tree_add_item(ptr noundef %197, i32 noundef %198, ptr noundef %199, i32 noundef %200, i32 noundef 3, i32 noundef 0)
  %202 = load i32, ptr %9, align 4
  %203 = add i32 %202, 3
  store i32 %203, ptr %9, align 4
  %204 = load ptr, ptr %7, align 8
  %205 = load i32, ptr @hf_wifi_dpp_tcp_oui_type, align 4
  %206 = load ptr, ptr %5, align 8
  %207 = load i32, ptr %9, align 4
  %208 = call ptr @proto_tree_add_item(ptr noundef %204, i32 noundef %205, ptr noundef %206, i32 noundef %207, i32 noundef 1, i32 noundef 0)
  %209 = load i32, ptr %9, align 4
  %210 = add i32 %209, 1
  store i32 %210, ptr %9, align 4
  %211 = load ptr, ptr %7, align 8
  %212 = load i32, ptr @hf_wifi_dpp_tcp_config, align 4
  %213 = load ptr, ptr %5, align 8
  %214 = load i32, ptr %9, align 4
  %215 = call ptr @proto_tree_add_item(ptr noundef %211, i32 noundef %212, ptr noundef %213, i32 noundef %214, i32 noundef 1, i32 noundef 0)
  %216 = load i32, ptr %9, align 4
  %217 = add i32 %216, 1
  store i32 %217, ptr %9, align 4
  %218 = load ptr, ptr %5, align 8
  %219 = load i32, ptr %9, align 4
  %220 = call zeroext i16 @tvb_get_letohs(ptr noundef %218, i32 noundef %219)
  store i16 %220, ptr %12, align 2
  %221 = load ptr, ptr %7, align 8
  %222 = load i32, ptr @hf_wifi_dpp_tcp_query_resp_len, align 4
  %223 = load ptr, ptr %5, align 8
  %224 = load i32, ptr %9, align 4
  %225 = call ptr @proto_tree_add_item(ptr noundef %221, i32 noundef %222, ptr noundef %223, i32 noundef %224, i32 noundef 2, i32 noundef -2147483648)
  %226 = load i32, ptr %9, align 4
  %227 = add i32 %226, 2
  store i32 %227, ptr %9, align 4
  %228 = load i16, ptr %12, align 2
  %229 = icmp ne i16 %228, 0
  br i1 %229, label %230, label %238

230:                                              ; preds = %168
  %231 = load ptr, ptr %6, align 8
  %232 = load ptr, ptr %7, align 8
  %233 = load ptr, ptr %5, align 8
  %234 = load i32, ptr %9, align 4
  %235 = call i32 @dissect_wifi_dpp_config_proto(ptr noundef %231, ptr noundef %232, ptr noundef %233, i32 noundef %234)
  %236 = load i32, ptr %9, align 4
  %237 = add i32 %236, %235
  store i32 %237, ptr %9, align 4
  br label %238

238:                                              ; preds = %230, %168
  br label %239

239:                                              ; preds = %238, %135
  br label %240

240:                                              ; preds = %239, %64
  br label %241

241:                                              ; preds = %240, %36
  %242 = load i32, ptr %9, align 4
  ret i32 %242
}