; Function Attrs: nounwind uwtable
define internal i32 @dissect_wifi_dpp_tcp_pdu(ptr noundef %0, ptr noundef readonly captures(none) %1, ptr noundef %2, ptr readnone captures(none) %3) #0 {
  %5 = getelementptr inbounds nuw i8, ptr %1, i64 8
  %6 = load ptr, ptr %5, align 8
  tail call void @col_set_str(ptr noundef %6, i32 noundef 34, ptr noundef nonnull @.str.88) #2
  %7 = load i32, ptr @hf_wifi_dpp_tcp_pdu_length, align 4
  %8 = tail call ptr @proto_tree_add_item(ptr noundef %2, i32 noundef %7, ptr noundef %0, i32 noundef 0, i32 noundef 4, i32 noundef 0) #2
  %9 = tail call zeroext i8 @tvb_get_guint8(ptr noundef %0, i32 noundef 4) #2
  %10 = load i32, ptr @hf_wifi_dpp_tcp_pdu_action_field, align 4
  %11 = tail call ptr @proto_tree_add_item(ptr noundef %2, i32 noundef %10, ptr noundef %0, i32 noundef 4, i32 noundef 1, i32 noundef 0) #2
  switch i8 %9, label %93 [
    i8 9, label %12
    i8 10, label %20
    i8 13, label %47
    i8 11, label %47
  ]

12:                                               ; preds = %4
  %13 = load i32, ptr @hf_wifi_dpp_tcp_oui, align 4
  %14 = tail call ptr @proto_tree_add_item(ptr noundef %2, i32 noundef %13, ptr noundef %0, i32 noundef 5, i32 noundef 3, i32 noundef 0) #2
  %15 = load i32, ptr @hf_wifi_dpp_tcp_oui_type, align 4
  %16 = tail call ptr @proto_tree_add_item(ptr noundef %2, i32 noundef %15, ptr noundef %0, i32 noundef 8, i32 noundef 1, i32 noundef 0) #2
  %17 = tail call ptr @tvb_new_subset_remaining(ptr noundef %0, i32 noundef 9) #2
  %18 = tail call i32 @dissect_wifi_dpp_public_action(ptr noundef %17, ptr noundef nonnull %1, ptr noundef %2, ptr poison)
  %19 = add nuw nsw i32 %18, 9
  br label %93

20:                                               ; preds = %4
  %21 = load ptr, ptr %5, align 8
  tail call void @col_append_str(ptr noundef %21, i32 noundef 25, ptr noundef nonnull @.str.164) #2
  %22 = load i32, ptr @hf_wifi_dpp_tcp_dialog_token, align 4
  %23 = tail call ptr @proto_tree_add_item(ptr noundef %2, i32 noundef %22, ptr noundef %0, i32 noundef 5, i32 noundef 1, i32 noundef 0) #2
  %24 = load i32, ptr @hf_wifi_dpp_tcp_adv_proto_elt, align 4
  %25 = tail call ptr @proto_tree_add_item(ptr noundef %2, i32 noundef %24, ptr noundef %0, i32 noundef 6, i32 noundef 3, i32 noundef 0) #2
  %26 = load i32, ptr @hf_wifi_dpp_tcp_vendor_specific, align 4
  %27 = tail call ptr @proto_tree_add_item(ptr noundef %2, i32 noundef %26, ptr noundef %0, i32 noundef 9, i32 noundef 1, i32 noundef 0) #2
  %28 = load i32, ptr @hf_wifi_dpp_tcp_vendor_spec_len, align 4
  %29 = tail call ptr @proto_tree_add_item(ptr noundef %2, i32 noundef %28, ptr noundef %0, i32 noundef 10, i32 noundef 1, i32 noundef 0) #2
  %30 = load i32, ptr @hf_wifi_dpp_tcp_oui, align 4
  %31 = tail call ptr @proto_tree_add_item(ptr noundef %2, i32 noundef %30, ptr noundef %0, i32 noundef 11, i32 noundef 3, i32 noundef 0) #2
  %32 = load i32, ptr @hf_wifi_dpp_tcp_oui_type, align 4
  %33 = tail call ptr @proto_tree_add_item(ptr noundef %2, i32 noundef %32, ptr noundef %0, i32 noundef 14, i32 noundef 1, i32 noundef 0) #2
  %34 = load i32, ptr @hf_wifi_dpp_tcp_config, align 4
  %35 = tail call ptr @proto_tree_add_item(ptr noundef %2, i32 noundef %34, ptr noundef %0, i32 noundef 15, i32 noundef 1, i32 noundef 0) #2
  %36 = load i32, ptr @hf_wifi_dpp_tcp_query_req_len, align 4
  %37 = tail call ptr @proto_tree_add_item(ptr noundef %2, i32 noundef %36, ptr noundef %0, i32 noundef 16, i32 noundef 2, i32 noundef -2147483648) #2
  %38 = tail call i32 @tvb_reported_length_remaining(ptr noundef %0, i32 noundef 18) #2
  %39 = load i32, ptr @proto_wifi_dpp, align 4
  %40 = tail call ptr @proto_tree_add_item(ptr noundef %2, i32 noundef %39, ptr noundef %0, i32 noundef 18, i32 noundef -1, i32 noundef 0) #2
  %41 = load i32, ptr @ett_wifi_dpp_pa, align 4
  %42 = tail call ptr @proto_item_add_subtree(ptr noundef %40, i32 noundef %41) #2
  tail call void (ptr, ptr, ...) @proto_item_append_text(ptr noundef %40, ptr noundef nonnull @.str) #2
  %43 = load i32, ptr @ett_wifi_dpp_attributes, align 4
  %44 = tail call ptr (ptr, ptr, i32, i32, i32, ptr, ptr, ...) @proto_tree_add_subtree_format(ptr noundef %42, ptr noundef %0, i32 noundef 18, i32 noundef %38, i32 noundef %43, ptr noundef null, ptr noundef nonnull @.str.1) #2
  %45 = tail call fastcc i32 @dissect_wifi_dpp_attributes(ptr noundef %44, ptr noundef %0, i32 noundef 18)
  %46 = add i32 %45, 18
  br label %93

47:                                               ; preds = %4, %4
  %48 = icmp eq i8 %9, 13
  %49 = load ptr, ptr %5, align 8
  tail call void @col_append_str(ptr noundef %49, i32 noundef 25, ptr noundef nonnull @.str.165) #2
  %50 = load i32, ptr @hf_wifi_dpp_tcp_dialog_token, align 4
  %51 = tail call ptr @proto_tree_add_item(ptr noundef %2, i32 noundef %50, ptr noundef %0, i32 noundef 5, i32 noundef 1, i32 noundef 0) #2
  %52 = load i32, ptr @hf_wifi_dpp_tcp_status_code, align 4
  %53 = tail call ptr @proto_tree_add_item(ptr noundef %2, i32 noundef %52, ptr noundef %0, i32 noundef 6, i32 noundef 2, i32 noundef -2147483648) #2
  br i1 %48, label %54, label %57

54:                                               ; preds = %47
  %55 = load i32, ptr @hf_wifi_dpp_gas_query_resp_frag_id, align 4
  %56 = tail call ptr @proto_tree_add_item(ptr noundef %2, i32 noundef %55, ptr noundef %0, i32 noundef 8, i32 noundef 1, i32 noundef 0) #2
  br label %57

57:                                               ; preds = %54, %47
  %.1 = phi i32 [ 9, %54 ], [ 8, %47 ]
  %58 = load i32, ptr @hf_wifi_dpp_tcp_comeback_delay, align 4
  %59 = tail call ptr @proto_tree_add_item(ptr noundef %2, i32 noundef %58, ptr noundef %0, i32 noundef %.1, i32 noundef 2, i32 noundef -2147483648) #2
  %60 = or disjoint i32 %.1, 2
  %61 = load i32, ptr @hf_wifi_dpp_tcp_adv_proto_elt, align 4
  %62 = tail call ptr @proto_tree_add_item(ptr noundef %2, i32 noundef %61, ptr noundef %0, i32 noundef %60, i32 noundef 3, i32 noundef 0) #2
  %63 = add nuw nsw i32 %.1, 5
  %64 = load i32, ptr @hf_wifi_dpp_tcp_vendor_specific, align 4
  %65 = tail call ptr @proto_tree_add_item(ptr noundef %2, i32 noundef %64, ptr noundef %0, i32 noundef %63, i32 noundef 1, i32 noundef 0) #2
  %66 = or disjoint i32 %.1, 6
  %67 = load i32, ptr @hf_wifi_dpp_tcp_vendor_spec_len, align 4
  %68 = tail call ptr @proto_tree_add_item(ptr noundef %2, i32 noundef %67, ptr noundef %0, i32 noundef %66, i32 noundef 1, i32 noundef 0) #2
  %69 = add nuw nsw i32 %.1, 7
  %70 = load i32, ptr @hf_wifi_dpp_tcp_oui, align 4
  %71 = tail call ptr @proto_tree_add_item(ptr noundef %2, i32 noundef %70, ptr noundef %0, i32 noundef %69, i32 noundef 3, i32 noundef 0) #2
  %72 = add nuw nsw i32 %.1, 10
  %73 = load i32, ptr @hf_wifi_dpp_tcp_oui_type, align 4
  %74 = tail call ptr @proto_tree_add_item(ptr noundef %2, i32 noundef %73, ptr noundef %0, i32 noundef %72, i32 noundef 1, i32 noundef 0) #2
  %75 = add nuw nsw i32 %.1, 11
  %76 = load i32, ptr @hf_wifi_dpp_tcp_config, align 4
  %77 = tail call ptr @proto_tree_add_item(ptr noundef %2, i32 noundef %76, ptr noundef %0, i32 noundef %75, i32 noundef 1, i32 noundef 0) #2
  %78 = add nuw nsw i32 %.1, 12
  %79 = tail call zeroext i16 @tvb_get_letohs(ptr noundef %0, i32 noundef %78) #2
  %80 = load i32, ptr @hf_wifi_dpp_tcp_query_resp_len, align 4
  %81 = tail call ptr @proto_tree_add_item(ptr noundef %2, i32 noundef %80, ptr noundef %0, i32 noundef %78, i32 noundef 2, i32 noundef -2147483648) #2
  %82 = add nuw nsw i32 %.1, 14
  %.not = icmp eq i16 %79, 0
  br i1 %.not, label %93, label %83

83:                                               ; preds = %57
  %84 = tail call i32 @tvb_reported_length_remaining(ptr noundef %0, i32 noundef %82) #2
  %85 = load i32, ptr @proto_wifi_dpp, align 4
  %86 = tail call ptr @proto_tree_add_item(ptr noundef %2, i32 noundef %85, ptr noundef %0, i32 noundef %82, i32 noundef -1, i32 noundef 0) #2
  %87 = load i32, ptr @ett_wifi_dpp_pa, align 4
  %88 = tail call ptr @proto_item_add_subtree(ptr noundef %86, i32 noundef %87) #2
  tail call void (ptr, ptr, ...) @proto_item_append_text(ptr noundef %86, ptr noundef nonnull @.str) #2
  %89 = load i32, ptr @ett_wifi_dpp_attributes, align 4
  %90 = tail call ptr (ptr, ptr, i32, i32, i32, ptr, ptr, ...) @proto_tree_add_subtree_format(ptr noundef %88, ptr noundef %0, i32 noundef %82, i32 noundef %84, i32 noundef %89, ptr noundef null, ptr noundef nonnull @.str.1) #2
  %91 = tail call fastcc i32 @dissect_wifi_dpp_attributes(ptr noundef %90, ptr noundef %0, i32 noundef %82)
  %92 = add i32 %91, %82
  br label %93

93:                                               ; preds = %4, %20, %57, %83, %12
  %.0 = phi i32 [ %19, %12 ], [ %46, %20 ], [ %92, %83 ], [ %82, %57 ], [ 5, %4 ]
  ret i32 %.0
}